(dp1
S'body'
p2
S'TEXT'
p3
sS'dateline'
p4
S'TIMESTAMP'
p5
sS'title'
p6
S'CHAR(512)'
p7
sS'id'
p8
S'INTEGER PRIMARY KEY AUTOINCREMENT'
p9
sS'user'
p10
S'INTEGER REFERENCES auth_user(id) ON DELETE CASCADE'
p11
s.