(dp1
S'id'
p2
(dp3
S'type'
p4
S'id'
p5
sS'sortable'
p6
I1
sS'sql'
p7
S'INTEGER PRIMARY KEY AUTOINCREMENT'
p8
ssS'about_this_category'
p9
(dp10
g4
S'text'
p11
sg6
I3
sg7
S'TEXT'
p12
ssS'title'
p13
(dp14
g4
S'string'
p15
sg6
I2
sg7
S'CHAR(512)'
p16
ss.