(dp1
S'name'
p2
(dp3
S'type'
p4
S'string'
p5
sS'sortable'
p6
I3
sS'sql'
p7
S'CHAR(512)'
p8
ssS'post'
p9
(dp10
g4
S'reference post'
p11
sg6
I2
sg7
S'INTEGER REFERENCES post(id) ON DELETE CASCADE'
p12
ssS'dateline'
p13
(dp14
g4
S'datetime'
p15
sg6
I6
sg7
S'TIMESTAMP'
p16
ssS'commentbody'
p17
(dp18
g4
S'text'
p19
sg6
I5
sg7
S'TEXT'
p20
ssS'id'
p21
(dp22
g4
S'id'
p23
sg6
I1
sg7
S'INTEGER PRIMARY KEY AUTOINCREMENT'
p24
ssS'email'
p25
(dp26
g4
g5
sg6
I4
sg7
S'CHAR(512)'
p27
ss.