(dp1
S'aboutme'
p2
S'TEXT'
p3
sS'id_user'
p4
S'INTEGER REFERENCES auth_user(id) ON DELETE CASCADE'
p5
sS'age'
p6
S'CHAR(512)'
p7
sS'institution'
p8
S'CHAR(512)'
p9
sS'email'
p10
S'CHAR(512)'
p11
sS'followers'
p12
S'CHAR(512)'
p13
sS'following'
p14
S'CHAR(512)'
p15
sS'auth_user'
p16
S'INTEGER REFERENCES auth_user(id) ON DELETE CASCADE'
p17
sS'idd'
p18
S'INTEGER REFERENCES auth_user(id) ON DELETE CASCADE'
p19
sS'id'
p20
S'INTEGER PRIMARY KEY AUTOINCREMENT'
p21
s.