(dp1
S'output'
p2
S''
sS'layer'
p3
S'/home/franzejr/web2py/applications/E_Learning/models/db.py'
p4
sS'code'
p5
S'# -*- coding: utf-8 -*-\n# this file is released under public domain and you can use without limitations\n\n#########################################################################\n## This scaffolding model makes your app work on Google App Engine too\n#########################################################################\n\nif request.env.web2py_runtime_gae:            # if running on Google App Engine\n    db = DAL(\'gae://mynamespace\')             # connect to Google BigTable\n    session.connect(request, response, db = db) # and store sessions and tickets there\n    ### or use the following lines to store sessions in Memcache\n    # from gluon.contrib.memdb import MEMDB\n    # from google.appengine.api.memcache import Client\n    # session.connect(request, response, db = MEMDB(Client()))\nelse:                                         # else use a normal relational database\n    db = DAL(\'sqlite://storage.sqlite\')       # if not, use SQLite or other DB\n## if no need for session\n# session.forget()\n\n#########################################################################\n## Here is sample code if you need for\n## - email capabilities\n## - authentication (registration, login, logout, ... )\n## - authorization (role based authorization)\n## - services (xml, csv, json, xmlrpc, jsonrpc, amf, rss)\n## - crud actions\n## (more options discussed in gluon/tools.py)\n#########################################################################\n\nfrom gluon.tools import *\nmail = Mail()                                  # mailer\nauth = Auth(globals(),db)                      # authentication/authorization\ncrud = Crud(globals(),db)                      # for CRUD helpers using auth\nservice = Service(globals())                   # for json, xml, jsonrpc, xmlrpc, amfrpc\nplugins = PluginManager()\n\nmail.settings.server = \'logging\' or \'smtp.gmail.com:587\'  # your SMTP server\nmail.settings.sender = \'you@gmail.com\'         # your email\nmail.settings.login = \'username:password\'      # your credentials or None\n\nauth.settings.hmac_key = \'sha512:a667c7a1-8129-45c6-a7c5-397d1085dabe\'   # before define_tables()\nauth.define_tables()                           # creates all needed tables\nauth.settings.mailer = mail                    # for user email verification\nauth.settings.registration_requires_verification = False\nauth.settings.registration_requires_approval = False\nauth.messages.verify_email = \'Click on the link http://\'+request.env.http_host+URL(r=request,c=\'default\',f=\'user\',args=[\'verify_email\'])+\'/%(key)s to verify your email\'\nauth.settings.reset_password_requires_verification = True\nauth.messages.reset_password = \'Click on the link http://\'+request.env.http_host+URL(r=request,c=\'default\',f=\'user\',args=[\'reset_password\'])+\'/%(key)s to reset your password\'\n\n#########################################################################\n## If you need to use OpenID, Facebook, MySpace, Twitter, Linkedin, etc.\n## register with janrain.com, uncomment and customize following\n# from gluon.contrib.login_methods.rpx_account import RPXAccount\n# auth.settings.actions_disabled=[\'register\',\'change_password\',\'request_reset_password\']\n# auth.settings.login_form = RPXAccount(request, api_key=\'...\',domain=\'...\',\n#    url = "http://localhost:8000/%s/default/user/login" % request.application)\n## other login methods are in gluon/contrib/login_methods\n#########################################################################\n\ncrud.settings.auth = None                      # =auth to enforce authorization on crud\n\n#########################################################################\n## Define your tables below (or better in another model file) for example\n##\n## >>> db.define_table(\'mytable\',Field(\'myfield\',\'string\'))\n##\n## Fields can be \'string\',\'text\',\'password\',\'integer\',\'double\',\'boolean\'\n##       \'date\',\'time\',\'datetime\',\'blob\',\'upload\', \'reference TABLENAME\'\n## There is an implicit \'id integer autoincrement\' field\n## Consult manual for more options, validators, etc.\n##\n## More API examples for controllers:\n##\n## >>> db.mytable.insert(myfield=\'value\')\n## >>> rows=db(db.mytable.myfield==\'value\').select(db.mytable.ALL)\n## >>> for row in rows: print row.id, row.myfield\n#########################################################################\n\ndb.define_table(\'cateogories\',\n                Field(\'name\')\n                )\n\n\ndb.define_table(\'posts\', \n                Field(\'title\', requires=IS_NOT_EMPTY()),\n                Field(\'body\',\'text\', requires=IS_NOT_EMPTY()),\n                Field(\'category\', \'categories\', requires=IS_IN_DB(\'db.categories\')),\n                Field(\'date\', \'datetime\', default=request.now()),\n                Field(\'author\', \'auth_user\')\n                )\n'
p6
sS'snapshot'
p7
(dp8
S'exception'
p9
(dp10
S'__hash__'
p11
S"<method-wrapper '__hash__' of exceptions.TypeError object>"
p12
sS'__setattr__'
p13
S"<method-wrapper '__setattr__' of exceptions.TypeError object>"
p14
sS'__reduce_ex__'
p15
S'<built-in method __reduce_ex__ of exceptions.TypeError object>'
p16
sS'__getslice__'
p17
S"<method-wrapper '__getslice__' of exceptions.TypeError object>"
p18
sS'__getitem__'
p19
S"<method-wrapper '__getitem__' of exceptions.TypeError object>"
p20
sS'__setstate__'
p21
S'<built-in method __setstate__ of exceptions.TypeError object>'
p22
sS'__reduce__'
p23
S'<built-in method __reduce__ of exceptions.TypeError object>'
p24
sS'__str__'
p25
S"<method-wrapper '__str__' of exceptions.TypeError object>"
p26
sS'__format__'
p27
S'<built-in method __format__ of exceptions.TypeError object>'
p28
sS'__getattribute__'
p29
S"<method-wrapper '__getattribute__' of exceptions.TypeError object>"
p30
sS'__class__'
p31
S"<type 'exceptions.TypeError'>"
p32
sS'__unicode__'
p33
S'<built-in method __unicode__ of exceptions.TypeError object>'
p34
sS'__delattr__'
p35
S"<method-wrapper '__delattr__' of exceptions.TypeError object>"
p36
sS'__subclasshook__'
p37
S'<built-in method __subclasshook__ of type object>'
p38
sS'__repr__'
p39
S"<method-wrapper '__repr__' of exceptions.TypeError object>"
p40
sS'args'
p41
S"('__init__() takes at least 3 arguments (2 given)',)"
p42
sS'__dict__'
p43
S'{}'
p44
sS'__sizeof__'
p45
S'<built-in method __sizeof__ of exceptions.TypeError object>'
p46
sS'__doc__'
p47
S"'Inappropriate argument type.'"
p48
sS'__init__'
p49
S"<method-wrapper '__init__' of exceptions.TypeError object>"
p50
sS'__new__'
p51
S'<built-in method __new__ of type object>'
p52
ssS'evalue'
p53
S'__init__() takes at least 3 arguments (2 given)'
p54
sS'request'
p55
(dp56
S'function'
p57
S"'index'"
p58
sS'body'
p59
S'<cStringIO.StringO object>'
p60
sS'wsgi'
p61
S"<Storage {'start_response': <function <lambda> a...: 'gzip, deflate', 'PATH_INFO': '/E_Learning/'}}>"
p62
sS'extension'
p63
S"'html'"
p64
sS'vars'
p65
S'<Storage {}>'
p66
sS'cid'
p67
S'None'
p68
sS'url'
p69
S'<gluon.html.XML object>'
p70
sS'raw_extension'
p71
S'None'
p72
sg41
S'[]'
p73
sS'controller'
p74
S"'default'"
p75
sS'cookies'
p76
S"<SimpleCookie: session_id_admin='127.0.0.1-c9636...'127.0.0.1-23dad7cb-b091-4d73-a5e8-c79af16de874'>"
p77
sS'application'
p78
S"'E_Learning'"
p79
sS'ajax'
p80
S'False'
p81
sS'client'
p82
S"'127.0.0.1'"
p83
sS'env'
p84
S"<Storage {'wsgi_multithread': True, 'http_accept...ote_port': '53729', 'path_info': '/E_Learning/'}>"
p85
sS'raw_args'
p86
S'None'
p87
sS'get_vars'
p88
S'<Storage {}>'
p89
sS'folder'
p90
S"'/home/franzejr/web2py/applications/E_Learning/'"
p91
sS'now'
p92
S'datetime.datetime(2011, 5, 31, 11, 49, 5, 390032)'
p93
sS'post_vars'
p94
S'<Storage {}>'
p95
ssS'frames'
p96
(lp97
(dp98
S'file'
p99
S'/home/franzejr/web2py/gluon/restricted.py'
p100
sS'dump'
p101
(dp102
S'environment'
p103
S"{'A': <class 'gluon.html.A'>, 'Auth': <class 'gluon.tools.Auth'>, 'B': <class 'gluon.html.B'>, 'BEAUTIFY': <class 'gluon.html.BEAUTIFY'>, 'BODY': <class 'gluon.html.BODY'>, 'BR': <class 'gluon.html.BR'>, 'CENTER': <class 'gluon.html.CENTER'>, 'CLEANUP': <class 'gluon.validators.CLEANUP'>, 'CODE': <class 'gluon.html.CODE'>, 'CRYPT': <class 'gluon.validators.CRYPT'>, ...}"
p104
sS'ccode'
p105
S'<code object <module> at 0xa03ada0, file "/home/...py/applications/E_Learning/models/db.py", line 8>'
p106
ssS'lnum'
p107
I188
sS'lines'
p108
(dp109
I192
S'        # XXX Show exception in Wing IDE if running in debugger'
p110
sI183
S'        if type(code) == types.CodeType:'
p111
sI184
S'            ccode = code'
p112
sI185
S'        else:'
p113
sI186
S'            ccode = compile2(code,layer)'
p114
sI187
S''
sI188
S'        exec ccode in environment'
p115
sI189
S'    except HTTP:'
p116
sI190
S'        raise'
p117
sI191
S'    except Exception:'
p118
ssS'call'
p119
S'(code="# -*- coding: utf-8 -*-\\n# this file is released ...  Field(\'author\', \'auth_user\')\\n                )\\n", environment={\'A\': <class \'gluon.html.A\'>, \'Auth\': <class \'gluon.tools.Auth\'>, \'B\': <class \'gluon.html.B\'>, \'BEAUTIFY\': <class \'gluon.html.BEAUTIFY\'>, \'BODY\': <class \'gluon.html.BODY\'>, \'BR\': <class \'gluon.html.BR\'>, \'CENTER\': <class \'gluon.html.CENTER\'>, \'CLEANUP\': <class \'gluon.validators.CLEANUP\'>, \'CODE\': <class \'gluon.html.CODE\'>, \'CRYPT\': <class \'gluon.validators.CRYPT\'>, ...}, layer=\'/home/franzejr/web2py/applications/E_Learning/models/db.py\')'
p120
sS'func'
p121
S'restricted'
p122
sa(dp123
g99
S'/home/franzejr/web2py/applications/E_Learning/models/db.py'
p124
sg101
(dp125
S'Field'
p126
S"<class 'gluon.dal.Field'>"
p127
sS'requires'
p128
S'undefined'
p129
sS'IS_IN_DB'
p130
S"<class 'gluon.validators.IS_IN_DB'>"
p131
ssg107
I87
sg108
(dp132
I81
S'                )'
p133
sI82
S''
sI83
S''
sI84
S"db.define_table('posts',"
p134
sI85
S"                Field('title', requires=IS_NOT_EMPTY()),"
p135
sI86
S"                Field('body','text', requires=IS_NOT_EMPTY()),"
p136
sI87
S"                Field('category', 'categories', requires=IS_IN_DB('db.categories')),"
p137
sI88
S"                Field('date', 'datetime', default=request.now()),"
p138
sI89
S"                Field('author', 'auth_user')"
p139
sI90
S'                )'
p140
ssg119
S'()'
p141
sg121
S'<module>'
p142
sasS'pyver'
p143
S'Python 2.7.1+: /usr/bin/python'
p144
sS'session'
p145
(dp146
S'auth'
p147
S'None'
p148
ssS'etype'
p149
S"<type 'exceptions.TypeError'>"
p150
sS'date'
p151
S'Tue May 31 11:49:05 2011'
p152
sS'response'
p153
(dp154
S'status'
p155
S'200'
p156
sg59
S'<cStringIO.StringO object>'
p157
sg76
S"<SimpleCookie: session_id_E_Learning='127.0.0.1-1a8e4d80-ff04-4758-be88-57c591b69b41'>"
p158
sS'_vars'
p159
S'None'
p160
sS'menu'
p161
S'[]'
p162
sS'flash'
p163
S"''"
p164
sS'session_new'
p165
S'True'
p166
sS'_custom_rollback'
p167
S'None'
p168
sS'session_id'
p169
S"'127.0.0.1-1a8e4d80-ff04-4758-be88-57c591b69b41'"
p170
sS'headers'
p171
S"<Storage {'Expires': 'Tue, 31 May 2011 14:49:05 ...he, must-revalidate, post-check=0, pre-check=0'}>"
p172
sS'meta'
p173
S'<Storage {}>'
p174
sS'session_filename'
p175
S"'/home/franzejr/web2py/applications/E_Learning/se...ns/127.0.0.1-1a8e4d80-ff04-4758-be88-57c591b69b41'"
p176
sS'postprocessing'
p177
S'[]'
p178
sS'_caller'
p179
S'<function <lambda>>'
p180
sS'_view_environment'
p181
S"{'A': <class 'gluon.html.A'>, 'B': <class 'gluon.html.B'>, 'BEAUTIFY': <class 'gluon.html.BEAUTIFY'>, 'BODY': <class 'gluon.html.BODY'>, 'BR': <class 'gluon.html.BR'>, 'CENTER': <class 'gluon.html.CENTER'>, 'CLEANUP': <class 'gluon.validators.CLEANUP'>, 'CODE': <class 'gluon.html.CODE'>, 'CRYPT': <class 'gluon.validators.CRYPT'>, 'DAL': <class 'gluon.dal.DAL'>, ...}"
p182
sS'session_id_name'
p183
S"'session_id_E_Learning'"
p184
sS'_custom_commit'
p185
S'None'
p186
sS'files'
p187
S'[]'
p188
sS'view'
p189
S"'default/index.html'"
p190
ssS'locals'
p191
(dp192
S'Service'
p193
S"<class 'gluon.tools.Service'>"
p194
sS'OBJECT'
p195
S"<class 'gluon.html.OBJECT'>"
p196
sS'SQLDB'
p197
S"<class 'gluon.dal.DAL'>"
p198
sg145
S"<Storage {'auth': None}>"
p199
sS'LINK'
p200
S"<class 'gluon.html.LINK'>"
p201
sS'BR'
p202
S"<class 'gluon.html.BR'>"
p203
sS'local_import'
p204
S'<function <lambda>>'
p205
sS'OPTGROUP'
p206
S"<class 'gluon.html.OPTGROUP'>"
p207
sS'PRE'
p208
S"<class 'gluon.html.PRE'>"
p209
sS'IS_INT_IN_RANGE'
p210
S"<class 'gluon.validators.IS_INT_IN_RANGE'>"
p211
sS'IS_LOWER'
p212
S"<class 'gluon.validators.IS_LOWER'>"
p213
sS'IS_STRONG'
p214
S"<class 'gluon.validators.IS_STRONG'>"
p215
sS'Recaptcha'
p216
S"<class 'gluon.tools.Recaptcha'>"
p217
sS'cache'
p218
S'<gluon.cache.Cache object>'
p219
sS'IS_IN_DB'
p220
S"<class 'gluon.validators.IS_IN_DB'>"
p221
sS'TAG'
p222
S'<gluon.html.__TAG__ object>'
p223
sS'SQLField'
p224
S"<class 'gluon.dal.Field'>"
p225
sS'mail'
p226
S'<gluon.tools.Mail object>'
p227
sS'BODY'
p228
S"<class 'gluon.html.BODY'>"
p229
sS'IS_DATE_IN_RANGE'
p230
S"<class 'gluon.validators.IS_DATE_IN_RANGE'>"
p231
sS'IFRAME'
p232
S"<class 'gluon.html.IFRAME'>"
p233
sS'URL'
p234
S'<function _URL>'
p235
sS'db'
p236
S"<DAL {'auth_permission': <Table {'ALL': <gluon.d...0xa07b88c>}>, '_migrate': True, '_pool_size': 0}>"
p237
sg147
S'<gluon.tools.Auth object>'
p238
sS'P'
S"<class 'gluon.html.P'>"
p239
sS'TFOOT'
p240
S"<class 'gluon.html.TFOOT'>"
p241
sS'XHTML'
p242
S"<class 'gluon.html.XHTML'>"
p243
sS'ON'
p244
g166
sS'OL'
p245
S"<class 'gluon.html.OL'>"
p246
sS'TEXTAREA'
p247
S"<class 'gluon.html.TEXTAREA'>"
p248
sS'MENU'
p249
S"<class 'gluon.html.MENU'>"
p250
sS'EM'
p251
S"<class 'gluon.html.EM'>"
p252
sS'CODE'
p253
S"<class 'gluon.html.CODE'>"
p254
sS'HTTP'
p255
S"<class 'gluon.http.HTTP'>"
p256
sS'HR'
p257
S"<class 'gluon.html.HR'>"
p258
sS'IS_DATETIME'
p259
S"<class 'gluon.validators.IS_DATETIME'>"
p260
sS'STYLE'
p261
S"<class 'gluon.html.STYLE'>"
p262
sS'LABEL'
p263
S"<class 'gluon.html.LABEL'>"
p264
sS'CLEANUP'
p265
S"<class 'gluon.validators.CLEANUP'>"
p266
sS'plugins'
p267
S'<gluon.tools.PluginManager object>'
p268
sS'SELECT'
p269
S"<class 'gluon.html.SELECT'>"
p270
sS'CENTER'
p271
S"<class 'gluon.html.CENTER'>"
p272
sS'prettydate'
p273
S'<function prettydate>'
p274
sS'Crud'
p275
S"<class 'gluon.tools.Crud'>"
p276
sS'Auth'
p277
S"<class 'gluon.tools.Auth'>"
p278
sS'__builtins__'
p279
S"{'ArithmeticError': <type 'exceptions.ArithmeticError'>, 'AssertionError': <type 'exceptions.AssertionError'>, 'AttributeError': <type 'exceptions.AttributeError'>, 'BaseException': <type 'exceptions.BaseException'>, 'BufferError': <type 'exceptions.BufferError'>, 'BytesWarning': <type 'exceptions.BytesWarning'>, 'DeprecationWarning': <type 'exceptions.DeprecationWarning'>, 'EOFError': <type 'exceptions.EOFError'>, 'Ellipsis': Ellipsis, 'EnvironmentError': <type 'exceptions.EnvironmentError'>, ...}"
p280
sS'IS_LIST_OF'
p281
S"<class 'gluon.validators.IS_LIST_OF'>"
p282
sS'SQLFORM'
p283
S"<class 'gluon.sqlhtml.SQLFORM'>"
p284
sS'LOAD'
p285
S'<gluon.compileapp.LoadFactory object>'
p286
sS'redirect'
p287
S'<function redirect>'
p288
sS'FIELDSET'
p289
S"<class 'gluon.html.FIELDSET'>"
p290
sS'IS_EQUAL_TO'
p291
S"<class 'gluon.validators.IS_EQUAL_TO'>"
p292
sS'embed64'
p293
S'<function embed64>'
p294
sS'INPUT'
p295
S"<class 'gluon.html.INPUT'>"
p296
sS'EMBED'
p297
S"<class 'gluon.html.EMBED'>"
p298
sS'FORM'
p299
S"<class 'gluon.html.FORM'>"
p300
sS'H2'
p301
S"<class 'gluon.html.H2'>"
p302
sS'H3'
p303
S"<class 'gluon.html.H3'>"
p304
sS'H1'
p305
S"<class 'gluon.html.H1'>"
p306
sS'H6'
p307
S"<class 'gluon.html.H6'>"
p308
sS'H4'
p309
S"<class 'gluon.html.H4'>"
p310
sS'H5'
p311
S"<class 'gluon.html.H5'>"
p312
sS'UL'
p313
S"<class 'gluon.html.UL'>"
p314
sS'IS_UPPER'
p315
S"<class 'gluon.validators.IS_UPPER'>"
p316
sS'xmlescape'
p317
S'<function xmlescape>'
p318
sS'IS_TIME'
p319
S"<class 'gluon.validators.IS_TIME'>"
p320
sS'OPTION'
p321
S"<class 'gluon.html.OPTION'>"
p322
sS'TITLE'
p323
S"<class 'gluon.html.TITLE'>"
p324
sS'CRYPT'
p325
S"<class 'gluon.validators.CRYPT'>"
p326
sS'IS_EMPTY_OR'
p327
S"<class 'gluon.validators.IS_EMPTY_OR'>"
p328
sS'MARKMIN'
p329
S"<class 'gluon.html.MARKMIN'>"
p330
sS'service'
p331
S'<gluon.tools.Service object>'
p332
sS'SCRIPT'
p333
S"<class 'gluon.html.SCRIPT'>"
p334
sS'geocode'
p335
S'<function geocode>'
p336
sS'TABLE'
p337
S"<class 'gluon.html.TABLE'>"
p338
sS'IS_IPV4'
p339
S"<class 'gluon.validators.IS_IPV4'>"
p340
sS'IS_LENGTH'
p341
S"<class 'gluon.validators.IS_LENGTH'>"
p342
sS'XML'
p343
S"<class 'gluon.html.XML'>"
p344
sS'B'
S"<class 'gluon.html.B'>"
p345
sS'IMG'
p346
S"<class 'gluon.html.IMG'>"
p347
sS'SQLTABLE'
p348
S"<class 'gluon.sqlhtml.SQLTABLE'>"
p349
sS'IS_MATCH'
p350
S"<class 'gluon.validators.IS_MATCH'>"
p351
sS'IS_ALPHANUMERIC'
p352
S"<class 'gluon.validators.IS_ALPHANUMERIC'>"
p353
sS'SPAN'
p354
S"<class 'gluon.html.SPAN'>"
p355
sS'IS_SLUG'
p356
S"<class 'gluon.validators.IS_SLUG'>"
p357
sS'META'
p358
S"<class 'gluon.html.META'>"
p359
sS'fetch'
p360
S'<function fetch>'
p361
sS'IS_DATE'
p362
S"<class 'gluon.validators.IS_DATE'>"
p363
sS'IS_EMAIL'
p364
S"<class 'gluon.validators.IS_EMAIL'>"
p365
sS'IS_NOT_EMPTY'
p366
S"<class 'gluon.validators.IS_NOT_EMPTY'>"
p367
sS'IS_FLOAT_IN_RANGE'
p368
S"<class 'gluon.validators.IS_FLOAT_IN_RANGE'>"
p369
sS'BEAUTIFY'
p370
S"<class 'gluon.html.BEAUTIFY'>"
p371
sS'TBODY'
p372
S"<class 'gluon.html.TBODY'>"
p373
sS'Field'
p374
S"<class 'gluon.dal.Field'>"
p375
sS'Mail'
p376
S"<class 'gluon.tools.Mail'>"
p377
sS'DIV'
p378
S"<class 'gluon.html.DIV'>"
p379
sS'LEGEND'
p380
S"<class 'gluon.html.LEGEND'>"
p381
sS'DAL'
p382
S"<class 'gluon.dal.DAL'>"
p383
sS'TT'
p384
S"<class 'gluon.html.TT'>"
p385
sS'TR'
p386
S"<class 'gluon.html.TR'>"
p387
sS'LI'
p388
S"<class 'gluon.html.LI'>"
p389
sS'TH'
p390
S"<class 'gluon.html.TH'>"
p391
sS'TD'
p392
S"<class 'gluon.html.TD'>"
p393
sS'PluginManager'
p394
S"<class 'gluon.tools.PluginManager'>"
p395
sS'IS_URL'
p396
S"<class 'gluon.validators.IS_URL'>"
p397
sS'A'
S"<class 'gluon.html.A'>"
p398
sS'HEAD'
p399
S"<class 'gluon.html.HEAD'>"
p400
sS'IS_DATETIME_IN_RANGE'
p401
S"<class 'gluon.validators.IS_DATETIME_IN_RANGE'>"
p402
sS'HTML'
p403
S"<class 'gluon.html.HTML'>"
p404
sS'IS_IMAGE'
p405
S"<class 'gluon.validators.IS_IMAGE'>"
p406
sS'I'
S"<class 'gluon.html.I'>"
p407
sS'crud'
p408
S'<gluon.tools.Crud object>'
p409
sS'IS_NOT_IN_DB'
p410
S"<class 'gluon.validators.IS_NOT_IN_DB'>"
p411
sg153
S"<Storage {'status': 200, 'body': <cStringIO.Stri...t': None, 'files': [], '_custom_rollback': None}>"
p412
sS'THEAD'
p413
S"<class 'gluon.html.THEAD'>"
p414
sS'IS_NULL_OR'
p415
S"<class 'gluon.validators.IS_EMPTY_OR'>"
p416
sg55
S"<Storage {'function': 'index', 'body': <cStringI..., 11, 49, 5, 390032), 'post_vars': <Storage {}>}>"
p417
sS'IS_EXPR'
p418
S"<class 'gluon.validators.IS_EXPR'>"
p419
sS'IS_IN_SET'
p420
S"<class 'gluon.validators.IS_IN_SET'>"
p421
sS'IS_UPLOAD_FILENAME'
p422
S"<class 'gluon.validators.IS_UPLOAD_FILENAME'>"
p423
sS'IS_DECIMAL_IN_RANGE'
p424
S"<class 'gluon.validators.IS_DECIMAL_IN_RANGE'>"
p425
sS'T'
S'<gluon.languages.translator object>'
p426
sssS'traceback'
p427
S'Traceback (most recent call last):\n  File "/home/franzejr/web2py/gluon/restricted.py", line 188, in restricted\n    exec ccode in environment\n  File "/home/franzejr/web2py/applications/E_Learning/models/db.py", line 87, in <module>\n    Field(\'category\', \'categories\', requires=IS_IN_DB(\'db.categories\')),\nTypeError: __init__() takes at least 3 arguments (2 given)\n'
p428
s.