(dp1
S'output'
p2
S''
sS'layer'
p3
S'/home/franzejr/web2py/applications/E_Learning/views/posts/index.html'
p4
sS'code'
p5
S'response.write(\'<!DOCTYPE html>\\n<html lang="\', escape=False)\nresponse.write(T.accepted_language or \'en\')\nresponse.write(\'" class="no-js"><!-- no-js need it for modernzr -->\\n  <head>\\n    \\n    <meta charset="utf-8" />\\t  \\t\\n    <!-- www.phpied.com/conditional-comments-block-downloads/ -->\\n    <!--[if IE]><![endif]-->    \\n    <!-- Always force latest IE rendering engine \\n\\t (even in intranet) & Chrome Frame \\n\\t Remove this if you use the .htaccess -->\\n    <meta http-equiv="X-UA-Compatible" content="IE=edge,chrome=1">\\n    \\n    <title>\', escape=False)\nresponse.write(response.title or request.application)\nresponse.write(\'</title>\\n    \\n    <!-- http://dev.w3.org/html5/markup/meta.name.html -->\\n    <meta name="application-name" content="\', escape=False)\nresponse.write(request.application)\nresponse.write(\'" />\\t\\n    \\n    <!-- Speaking of Google, don\\\'t forget to set your site up: \\n\\t http://google.com/webmasters -->\\n    <meta name="google-site-verification" content="" />\\n    \\n    <!--  Mobile Viewport Fix\\n\\t  j.mp/mobileviewport & davidbcalhoun.com/2010/viewport-metatag \\n\\t  device-width: Occupy full width of the screen in its current orientation\\n\\t  initial-scale = 1.0 retains dimensions instead of zooming out if page height > device height\\n\\t  maximum-scale = 1.0 retains dimensions instead of zooming in if page width < device width\\n      -->\\n    <meta name="viewport" content="width=device-width; initial-scale=1.0; maximum-scale=1.0;">\\n    \\n    <!-- Place favicon.ico and apple-touch-icon.png in the root of your domain and delete these references -->\\n    <link rel="shortcut icon" href="\', escape=False)\nresponse.write(URL(\'static\',\'favicon.ico\'))\nresponse.write(\'" type="image/x-icon">\\n    <link rel="apple-touch-icon" href="\', escape=False)\nresponse.write(URL(\'static\',\'favicon.png\'))\nresponse.write(\'">\\n\\n    <!-- For the less-enabled mobile browsers like Opera Mini -->\\n    <link rel="stylesheet" media="handheld" href="\', escape=False)\nresponse.write(URL(\'static\',\'css/handheld.css\'))\nresponse.write(\'">\\n    \\n    <!-- All JavaScript at the bottom, except for Modernizr which enables HTML5 elements & feature detects -->\\n    <script src="\', escape=False)\nresponse.write(URL(\'static\',\'js/modernizr-1.6.min.js\'))\nresponse.write(\'"></script>\\n    \\n    \', escape=False)\n#------  require CSS and JS files for this page (read info in base.css) ------\nresponse.write(\'\\n    \', escape=False)\nresponse.files.append(URL(\'static\',\'css/base.css\'))\nresponse.write(\'\\n    \', escape=False)\nresponse.files.append(URL(\'static\',\'css/superfish.css\'))\nresponse.write(\'\\n    \', escape=False)\nresponse.files.append(URL(\'static\',\'js/superfish.js\'))\nresponse.write(\'\\n    \', escape=False)\n#------ include web2py specific js code (jquery, calendar, form stuff) ------\nresponse.write(\'\\n    \', escape=False)\nresponse.files.insert(0,URL(\'static\',\'js/jquery.js\'))\nresponse.files.insert(1,URL(\'static\',\'css/calendar.css\'))\nresponse.files.insert(2,URL(\'static\',\'js/calendar.js\'))\nfor _item in response.meta or []:\n    response.write(\'\\n     <meta name="\', escape=False)\n    response.write(_item)\n    response.write(\'" content="\', escape=False)\n    response.write(response.meta[_item])\n    response.write(\'" />\', escape=False)\n    pass\nfor _k,_file in enumerate(response.files or []):\n    if _file in response.files[:_k]:\n        continue\n    _file0=_file.lower().split(\'?\')[0]\n    if _file0.endswith(\'.css\'):\n        response.write(\'\\n     <link href="\', escape=False)\n        response.write(_file)\n        response.write(\'" rel="stylesheet" type="text/css" />\', escape=False)\n    elif _file0.endswith(\'.js\'):\n        response.write(\'\\n     <script src="\', escape=False)\n        response.write(_file)\n        response.write(\'" type="text/javascript"></script>\', escape=False)\n        pass\n    pass\nresponse.write(\'\\n  \\n<script type="text/javascript"><!--\\nfunction popup(url) {\\n  newwindow=window.open(url,\\\'name\\\',\\\'height=400,width=600\\\');\\n  if (window.focus) newwindow.focus();\\n  return false;\\n}\\nfunction collapse(id) { jQuery(\\\'#\\\'+id).slideToggle(); }\\nfunction fade(id,value) { if(value>0) jQuery(\\\'#\\\'+id).hide().fadeIn(\\\'slow\\\'); else jQuery(\\\'#\\\'+id).show().fadeOut(\\\'slow\\\'); }\\nfunction ajax(u,s,t) {\\n    query = \\\'\\\';\\n    if (typeof s == "string") {\\n        d = jQuery(s).serialize();\\n        if(d){ query = d; }\\n    } else {\\n        pcs = [];\\n        for(i=0; i<s.length; i++) {\\n            q = jQuery("[name="+s[i]+"]").serialize();\\n            if(q){pcs.push(q);}\\n        }\\n        if (pcs.length>0){query = pcs.join("&");}\\n    }\\n    jQuery.ajax({type: "POST", url: u, data: query, success: function(msg) { if(t) { if(t==\\\':eval\\\') eval(msg); else jQuery("#" + t).html(msg); } } }); \\n}\\n\\nString.prototype.reverse = function () { return this.split(\\\'\\\').reverse().join(\\\'\\\');};\\nfunction web2py_ajax_init() {\\n  jQuery(\\\'.hidden\\\').hide();\\n  jQuery(\\\'.error\\\').hide().slideDown(\\\'slow\\\');\\n  jQuery(\\\'.flash\\\').click(function() { jQuery(this).fadeOut(\\\'slow\\\'); return false; });\\n  // jQuery(\\\'input[type=submit]\\\').click(function(){var t=jQuery(this);t.hide();t.after(\\\'<input class="submit_disabled" disabled="disabled" type="submit" name="\\\'+t.attr("name")+\\\'_dummy" value="\\\'+t.val()+\\\'">\\\')});\\n  jQuery(\\\'input.integer\\\').live(\\\'keyup\\\', function(){this.value=this.value.reverse().replace(/[^0-9\\\\-]|\\\\-(?=.)/g,\\\'\\\').reverse();});\\n  jQuery(\\\'input.double,input.decimal\\\').live(\\\'keyup\\\', function(){this.value=this.value.reverse().replace(/[^0-9\\\\-\\\\.]|[\\\\-](?=.)|[\\\\.](?=[0-9]*[\\\\.])/g,\\\'\\\').reverse();});\\n  jQuery("input[type=\\\'checkbox\\\'].delete").live(\\\'click\\\', function(){ if(this.checked) if(!confirm("\', escape=False)\nresponse.write(T(\'Sure you want to delete this object?\'))\nresponse.write(\'")) this.checked=false; });\\n  try {jQuery("input.date").live(\\\'focus\\\',function() {Calendar.setup({\\n     inputField:this, ifFormat:"\', escape=False)\nresponse.write(T(\'%Y-%m-%d\'))\nresponse.write(\'", showsTime:false\\n  }); }); } catch(e) {};\\n  try { jQuery("input.datetime").live(\\\'focus\\\', function() {Calendar.setup({\\n     inputField:this, ifFormat:"\', escape=False)\nresponse.write(T(\'%Y-%m-%d %H:%M:%S\'))\nresponse.write(\'", showsTime: true,timeFormat: "24"\\n  }); }); } catch(e) {};\\n\\n  jQuery("input.time").live(\\\'focus\\\', function() { var el = jQuery(this); \\n          if (!el.hasClass(\\\'hasTimeEntry\\\')) try { el.timeEntry(); } catch(e) {}; \\n  });\\n};\\n\\njQuery(document).ready(function() {   \\n   var flash = jQuery(\\\'.flash\\\');\\n   flash.hide();\\n   if(flash.html()) flash.slideDown();\\n   web2py_ajax_init();\\n});\\nfunction web2py_trap_form(action,target) {\\n   jQuery(\\\'#\\\'+target+\\\' form\\\').each(function(i){\\n      var form=jQuery(this);\\n      if(!form.hasClass(\\\'no_trap\\\'))\\n        form.submit(function(obj){\\n         jQuery(\\\'.flash\\\').hide().html(\\\'\\\');\\n         web2py_ajax_page(\\\'post\\\',action,form.serialize(),target);\\n         return false;\\n      });\\n   });\\n}\\nfunction web2py_ajax_page(method,action,data,target) {\\n  jQuery.ajax({\\\'type\\\':method,\\\'url\\\':action,\\\'data\\\':data,\\n    \\\'beforeSend\\\':function(xhr) {\\n      xhr.setRequestHeader(\\\'web2py-component-location\\\',document.location);\\n      xhr.setRequestHeader(\\\'web2py-component-element\\\',target);},\\n    \\\'complete\\\':function(xhr,text){\\n      var html=xhr.responseText;\\n      var content=xhr.getResponseHeader(\\\'web2py-component-content\\\'); \\n      var command=xhr.getResponseHeader(\\\'web2py-component-command\\\');\\n      var flash=xhr.getResponseHeader(\\\'web2py-component-flash\\\');\\n      var t = jQuery(\\\'#\\\'+target);\\n      if(content==\\\'prepend\\\') t.prepend(html); \\n      else if(content==\\\'append\\\') t.append(html);\\n      else if(content!=\\\'hide\\\') t.html(html);  \\n      web2py_trap_form(action,target);\\n      web2py_ajax_init();      \\n      if(command) eval(command);\\n      if(flash) jQuery(\\\'.flash\\\').html(flash).slideDown();\\n      }\\n    });\\n}\\nfunction web2py_component(action,target) {\\n  jQuery(document).ready(function(){ web2py_ajax_page(\\\'get\\\',action,null,target); });\\n}\\nfunction web2py_comet(url,onmessage,onopen,onclose) {\\n  if ("WebSocket" in window) {\\n    var ws = new WebSocket(url);\\n    ws.onopen = onopen?onopen:(function(){});\\n    ws.onmessage = onmessage;\\n    ws.onclose = onclose?onclose:(function(){});\\n    return true; // supported\\n  } else return false; // not supported\\n}\\n//--></script>\\n\', escape=False)\nresponse.write(\'\\n\\n    \', escape=False)\n#using sidebars need to know what sidebar you want to use\n#prior of using it, because of static width size of content, you can use\n#left_sidebar, right_sidebar, both or none (False left and right)\nleft_sidebar_enabled = globals().get(\'left_sidebar_enabled\',False)\nright_sidebar_enabled = globals().get(\'right_sidebar_enabled\',False)\nif left_sidebar_enabled and right_sidebar_enabled: width_content=\'63%\'\nelif left_sidebar_enabled != right_sidebar_enabled: width_content=\'740px\'\nelse: width_content=\'100%\'\nif left_sidebar_enabled: left_sidebar_style = \'style="display: block;"\'\nelse: left_sidebar_style = \'style="display: none;"\'\nif right_sidebar_enabled: right_sidebar_style = \'style="display: block;"\'\nelse: right_sidebar_style = \'style="display: none;"\'\nstyle_content = \'style="width: %s"\' % width_content\nresponse.write(\'\\n  </head>\\n  \\n  <!-- paulirish.com/2008/conditional-stylesheets-vs-css-hacks-answer-neither/ -->\\t\\n  <!--[if lt IE 7 ]> <body class="ie6"> <![endif]-->\\n  <!--[if IE 7 ]>    <body class="ie7"> <![endif]-->\\n  <!--[if IE 8 ]>    <body class="ie8"> <![endif]-->\\n  <!--[if IE 9 ]>    <body class="ie9"> <![endif]-->\\n  <!--[if (gt IE 9)|!(IE)]><!--> <body> <!--<![endif]-->\\n    \\n    <div class="flash">\', escape=False)\nresponse.write(response.flash or \'\')\nresponse.write(\'</div> <!-- notification div -->\\n    \\n    <div id="container">\\t      \\t\\t      \\t\\n      \\n      <div id="wrapper">\\t\\t\\n\\t\\n\\t<div id="header"> <!-- header and login nav -->\\n\\t  \', escape=False)\nresponse.write(\' <!-- this is default header -->\\n\\t  \', escape=False)\ntry:\n    response.write(auth.navbar(action=URL(\'default\',\'user\')))\nexcept:pass\nresponse.write(\'\\t\\t          \\n\\t  <div id="logo"><!-- put your logo here --></div>\\n\\t  <div style="clear: both;"></div><!-- Clear the divs -->\\n\\t  \', escape=False)\nresponse.write(\'\\t\\t\\t\\t  \\t\\t\\t\\t\\t  \\n\\t</div><!-- header  -->\\n\\t\\n\\t<div id="statusbar"><!-- statusbar is menu zone -->\\n\\t  \', escape=False)\nresponse.write(\' <!-- this is default statusbar -->\\n\\t  \', escape=False)\n#------ superfish menu ------\nresponse.write(\'\\n\\t  \', escape=False)\nresponse.write(MENU(response.menu,_class=\'sf-menu\'))\nresponse.write(\'\\n\\t  <script type="text/javascript">\\n\\t    jQuery(document).ready(function(){\\n\\t    jQuery(\\\'ul.sf-menu\\\').superfish();});\\n\\t  </script>\\n\\t  <div style="clear: both;"></div><!-- Clear the divs -->\\t\\n\\t  \', escape=False)\nresponse.write(\'\\t\\t\\t\\t\\n\\t</div><!-- statusbar -->\\n\\t\\n\\t<div id="page"> <!-- Here my central body -->\\t  \\n\\n\\t  \', escape=False)\nif left_sidebar_enabled:\n    response.write(\'\\n          <div id="left_sidebar" \', escape=False)\n    response.write(XML(left_sidebar_style))\n    response.write(\' >\\n            <div style="padding: 4px;">\\n\\t      \', escape=False)\n    response.write(\'Content Left Sidebar\', escape=False)\n    response.write(\'\\t\\t  \\n            </div>\\n          </div><!-- left_sidebar -->\\n\\t  \', escape=False)\n    pass\nresponse.write(\'\\n\\n\\t  <!-- content -->\\n\\t  <div id="content" \', escape=False)\nresponse.write(XML(style_content))\nresponse.write(\' >\\n\\t    \', escape=False)\nresponse.write(\'\\n<h1>\', escape=False)\nresponse.write(msg)\nresponse.write(\'</h1>\\n\\n\', escape=False)\nresponse.write(records)\nresponse.write(\'\\t\\n\\t  </div>\\n\\t  <!-- content -->\\n\\n\\t  \', escape=False)\nif right_sidebar_enabled:\n    response.write(\'\\n          <div id="right_sidebar" \', escape=False)\n    response.write(XML(right_sidebar_style))\n    response.write(\' >\\n            <div style="padding: 4px;">\\n              \', escape=False)\n    response.write(\'Content Right Sidebar\', escape=False)\n    response.write(\'\\n            </div>\\n\\t  </div><!-- right_sidebar -->\\n          \', escape=False)\n    pass\nresponse.write(\'\\n\\n\\n\\t  <div style="clear: both;"></div><!-- Clear the divs -->\\n\\t  \\n\\t</div><!-- page -->\\t\\t\\t\\t\\t\\t\\t\\n\\t\\n\\t<div id="footer">\\n\\t  \', escape=False)\nresponse.write(\' <!-- this is default footer -->\\n\\t  <a href="http://www.web2py.com/" style="float: left; padding-right: 6px;">\\n\\t    <img src="\', escape=False)\nresponse.write(URL(\'static\',\'images/poweredby.png\'))\nresponse.write(\'"/>\\n\\t  </a>\\n\\t  \', escape=False)\nresponse.write(T(\'Copyright\'))\nresponse.write(\' &#169; 2010\\t\\t\\t\\t\\n\\t  <div style="clear: both;"></div><!-- Clear the divs -->\\n\\t  \', escape=False)\nresponse.write(\'\\n\\n\\t</div><!-- footer -->\\t\\t\\t\\n      </div><!-- wrapper -->\\n    </div><!-- container -->\\t\\t\\n    \\n    <!--[if lt IE 7 ]>\\n\\t<script src="\', escape=False)\nresponse.write(URL(\'static\',\'js/dd_belatedpng.js\'))\nresponse.write(\'"></script>\\n\\t<script> DD_belatedPNG.fix(\\\'img, .png_bg\\\'); //fix any <img> or .png_bg background-images </script>\\n\\t<![endif]-->\\n    \\n    <!-- asynchronous google analytics: mathiasbynens.be/notes/async-analytics-snippet \\n\\t change the UA-XXXXX-X to be your site\\\'s ID -->\\n    <!--   \\n\\t   <script>\\n\\t     var _gaq = [[\\\'_setAccount\\\', \\\'UA-XXXXX-X\\\'], [\\\'_trackPageview\\\']];\\n\\t     (function(d, t) {\\n\\t     var g = d.createElement(t),\\n\\t     s = d.getElementsByTagName(t)[0];\\n\\t     g.async = true;\\n\\t     g.src = \\\'//www.google-analytics.com/ga.js\\\';\\n\\t     s.parentNode.insertBefore(g, s);\\n\\t     })(document, \\\'script\\\');\\n\\t   </script>\\n\\t   -->    \\n  </body>\\n</html>\\n\', escape=False)'
p6
sS'snapshot'
p7
(dp8
S'exception'
p9
(dp10
S'__hash__'
p11
S"<method-wrapper '__hash__' of exceptions.NameError object>"
p12
sS'__setattr__'
p13
S"<method-wrapper '__setattr__' of exceptions.NameError object>"
p14
sS'__reduce_ex__'
p15
S'<built-in method __reduce_ex__ of exceptions.NameError object>'
p16
sS'__getslice__'
p17
S"<method-wrapper '__getslice__' of exceptions.NameError object>"
p18
sS'__getitem__'
p19
S"<method-wrapper '__getitem__' of exceptions.NameError object>"
p20
sS'__setstate__'
p21
S'<built-in method __setstate__ of exceptions.NameError object>'
p22
sS'__reduce__'
p23
S'<built-in method __reduce__ of exceptions.NameError object>'
p24
sS'__str__'
p25
S"<method-wrapper '__str__' of exceptions.NameError object>"
p26
sS'__format__'
p27
S'<built-in method __format__ of exceptions.NameError object>'
p28
sS'__getattribute__'
p29
S"<method-wrapper '__getattribute__' of exceptions.NameError object>"
p30
sS'__class__'
p31
S"<type 'exceptions.NameError'>"
p32
sS'__unicode__'
p33
S'<built-in method __unicode__ of exceptions.NameError object>'
p34
sS'__delattr__'
p35
S"<method-wrapper '__delattr__' of exceptions.NameError object>"
p36
sS'__subclasshook__'
p37
S'<built-in method __subclasshook__ of type object>'
p38
sS'__repr__'
p39
S"<method-wrapper '__repr__' of exceptions.NameError object>"
p40
sS'args'
p41
S'("name \'records\' is not defined",)'
p42
sS'__dict__'
p43
S'{}'
p44
sS'__sizeof__'
p45
S'<built-in method __sizeof__ of exceptions.NameError object>'
p46
sS'__doc__'
p47
S"'Name not found globally.'"
p48
sS'__init__'
p49
S"<method-wrapper '__init__' of exceptions.NameError object>"
p50
sS'__new__'
p51
S'<built-in method __new__ of type object>'
p52
ssS'evalue'
p53
S"name 'records' is not defined"
p54
sS'request'
p55
(dp56
S'function'
p57
S"'index'"
p58
sS'body'
p59
S'<cStringIO.StringO object>'
p60
sS'wsgi'
p61
S"<Storage {'start_response': <function <lambda> a...p, deflate', 'PATH_INFO': '/E_Learning/posts/'}}>"
p62
sS'extension'
p63
S"'html'"
p64
sS'vars'
p65
S'<Storage {}>'
p66
sS'cid'
p67
S'None'
p68
sS'url'
p69
S'<gluon.html.XML object>'
p70
sS'raw_extension'
p71
S'None'
p72
sg41
S'[]'
p73
sS'controller'
p74
S"'posts'"
p75
sS'cookies'
p76
S"<SimpleCookie: session_id_E_Learning='127.0.0.1-...'127.0.0.1-23dad7cb-b091-4d73-a5e8-c79af16de874'>"
p77
sS'application'
p78
S"'E_Learning'"
p79
sS'ajax'
p80
S'False'
p81
sS'client'
p82
S"'127.0.0.1'"
p83
sS'env'
p84
S"<Storage {'wsgi_multithread': True, 'http_accept...rt': '55874', 'path_info': '/E_Learning/posts/'}>"
p85
sS'raw_args'
p86
S'None'
p87
sS'get_vars'
p88
S'<Storage {}>'
p89
sS'folder'
p90
S"'/home/franzejr/web2py/applications/E_Learning/'"
p91
sS'now'
p92
S'datetime.datetime(2011, 5, 31, 14, 1, 8, 95687)'
p93
sS'post_vars'
p94
S'<Storage {}>'
p95
ssS'frames'
p96
(lp97
(dp98
S'file'
p99
S'/home/franzejr/web2py/gluon/restricted.py'
p100
sS'dump'
p101
(dp102
S'environment'
p103
S"{'A': <class 'gluon.html.A'>, 'Auth': <class 'gluon.tools.Auth'>, 'B': <class 'gluon.html.B'>, 'BEAUTIFY': <class 'gluon.html.BEAUTIFY'>, 'BODY': <class 'gluon.html.BODY'>, 'BR': <class 'gluon.html.BR'>, 'CENTER': <class 'gluon.html.CENTER'>, 'CLEANUP': <class 'gluon.validators.CLEANUP'>, 'CODE': <class 'gluon.html.CODE'>, 'CRYPT': <class 'gluon.validators.CRYPT'>, ...}"
p104
sS'ccode'
p105
S'<code object <module> at 0xa00bf98, file "/home/...tions/E_Learning/views/posts/index.html", line 1>'
p106
ssS'lnum'
p107
I188
sS'lines'
p108
(dp109
I192
S'        # XXX Show exception in Wing IDE if running in debugger'
p110
sI183
S'        if type(code) == types.CodeType:'
p111
sI184
S'            ccode = code'
p112
sI185
S'        else:'
p113
sI186
S'            ccode = compile2(code,layer)'
p114
sI187
S''
sI188
S'        exec ccode in environment'
p115
sI189
S'    except HTTP:'
p116
sI190
S'        raise'
p117
sI191
S'    except Exception:'
p118
ssS'call'
p119
S'(code=\'response.write(\\\'<!DOCTYPE html>\\\\n<html lang="\\\', ...t   -->    \\\\n  </body>\\\\n</html>\\\\n\\\', escape=False)\', environment={\'A\': <class \'gluon.html.A\'>, \'Auth\': <class \'gluon.tools.Auth\'>, \'B\': <class \'gluon.html.B\'>, \'BEAUTIFY\': <class \'gluon.html.BEAUTIFY\'>, \'BODY\': <class \'gluon.html.BODY\'>, \'BR\': <class \'gluon.html.BR\'>, \'CENTER\': <class \'gluon.html.CENTER\'>, \'CLEANUP\': <class \'gluon.validators.CLEANUP\'>, \'CODE\': <class \'gluon.html.CODE\'>, \'CRYPT\': <class \'gluon.validators.CRYPT\'>, ...}, layer=\'/home/franzejr/web2py/applications/E_Learning/views/posts/index.html\')'
p120
sS'func'
p121
S'restricted'
p122
sa(dp123
g99
S'/home/franzejr/web2py/applications/E_Learning/views/posts/index.html'
p124
sg101
(dp125
sg107
I99
sg108
(dp126
I96
S"response.write('\\n<h1>', escape=False)"
p127
sI97
S'response.write(msg)'
p128
sI98
S"response.write('</h1>\\n\\n', escape=False)"
p129
sI99
S'response.write(records)'
p130
sI100
S"response.write('\\t\\n\\t  </div>\\n\\t  <!-- content -->\\n\\n\\t  ', escape=False)"
p131
sI101
S'if right_sidebar_enabled:'
p132
sI102
S'    response.write(\'\\n          <div id="right_sidebar" \', escape=False)'
p133
sI103
S'    response.write(XML(right_sidebar_style))'
p134
sI104
S'    response.write(\' >\\n            <div style="padding: 4px;">\\n              \', escape=False)'
p135
sI105
S"    response.write('Content Right Sidebar', escape=False)"
p136
sI106
S"    response.write('\\n            </div>\\n\\t  </div><!-- right_sidebar -->\\n          ', escape=False)"
p137
sI107
S'    pass'
p138
sI108
S'response.write(\'\\n\\n\\n\\t  <div style="clear: both;"></div><!-- Clear the divs -->\\n\\t  \\n\\t</div><!-- page -->\\t\\t\\t\\t\\t\\t\\t\\n\\t\\n\\t<div id="footer">\\n\\t  \', escape=False)'
p139
sI109
S'response.write(\' <!-- this is default footer -->\\n\\t  <a href="http://www.web2py.com/" style="float: left; padding-right: 6px;">\\n\\t    <img src="\', escape=False)'
p140
sI90
S"    response.write('Content Left Sidebar', escape=False)"
p141
sI91
S"    response.write('\\t\\t  \\n            </div>\\n          </div><!-- left_sidebar -->\\n\\t  ', escape=False)"
p142
sI92
S'    pass'
p143
sI93
S'response.write(\'\\n\\n\\t  <!-- content -->\\n\\t  <div id="content" \', escape=False)'
p144
sI94
S'response.write(XML(style_content))'
p145
sI95
S"response.write(' >\\n\\t    ', escape=False)"
p146
ssg119
S'()'
p147
sg121
S'<module>'
p148
sasS'pyver'
p149
S'Python 2.7.1+: /usr/bin/python'
p150
sS'session'
p151
(dp152
S'_formkey[posts_create]'
p153
S"'7e0acebb-095f-4c60-96c7-757782d01210'"
p154
sS'_formkey[comment_create]'
p155
S"'4070392a-280d-4af5-a91a-0a05ca5e29d3'"
p156
sS'_formkey[post_1]'
p157
S"'cfff4450-ab45-4289-9e45-952c61bd2c7b'"
p158
sS'_formkey[post_create]'
p159
S"'25ef845e-f824-495b-b918-e825b0b61e0a'"
p160
sS'auth'
p161
S'None'
p162
ssS'etype'
p163
S"<type 'exceptions.NameError'>"
p164
sS'date'
p165
S'Tue May 31 14:01:08 2011'
p166
sS'response'
p167
(dp168
S'status'
p169
S'200'
p170
sg59
S'<cStringIO.StringO object>'
p171
sg76
S"<SimpleCookie: session_id_E_Learning='127.0.0.1-0da20020-d08d-46ab-8fa8-5484396a44f2'>"
p172
sS'_vars'
p173
S"{'msg': <lazyT 'Welcome to the Post Controller'>}"
p174
sS'title'
p175
S"'E_Learning'"
p176
sS'session_file'
p177
S"<open file '/home/franzejr/web2py/applications/E...da20020-d08d-46ab-8fa8-5484396a44f2', mode 'rb+'>"
p178
sS'flash'
p179
S"''"
p180
sS'_custom_rollback'
p181
S'None'
p182
sS'session_id'
p183
S"'127.0.0.1-0da20020-d08d-46ab-8fa8-5484396a44f2'"
p184
sS'headers'
p185
S"<Storage {'Expires': 'Tue, 31 May 2011 17:01:08 ...he, must-revalidate, post-check=0, pre-check=0'}>"
p186
sS'meta'
p187
S"<Storage {'keywords': 'web2py, python, framework... 'Web2py Enterprise Framework', 'author': 'you'}>"
p188
sS'session_filename'
p189
S"'/home/franzejr/web2py/applications/E_Learning/se...ns/127.0.0.1-0da20020-d08d-46ab-8fa8-5484396a44f2'"
p190
sS'postprocessing'
p191
S'[]'
p192
sS'menu'
p193
S"[(<lazyT 'Home'>, False, <gluon.html.XML object>, []), (<lazyT 'This App'>, False, <gluon.html.XML object>, [(<lazyT 'Controller'>, False, <gluon.html.XML object>), (<lazyT 'View'>, False, <gluon.html.XML object>), (<lazyT 'Layout'>, False, <gluon.html.XML object>), (<lazyT 'Stylesheet'>, False, <gluon.html.XML object>), (<lazyT 'DB Model'>, False, <gluon.html.XML object>), (<lazyT 'Menu Model'>, False, <gluon.html.XML object>), (<lazyT 'Database'>, False, <gluon.html.XML object>), (<lazyT 'Errors'>, False, <gluon.html.XML object>), (<lazyT 'About'>, False, <gluon.html.XML object>)]), (<lazyT 'Resources'>, False, None, [(<lazyT 'Documentation'>, False, 'http://www.web2py.com/book', [(<lazyT 'Preface'>, False, 'http://www.web2py.com/book/default/chapter/00'), (<lazyT 'Introduction'>, False, 'http://www.web2py.com/book/default/chapter/01'), (<lazyT 'Python'>, False, 'http://www.web2py.com/book/default/chapter/02'), (<lazyT 'Overview'>, False, 'http://www.web2py.com/book/default/chapter/03'), (<lazyT 'The Core'>, False, 'http://www.web2py.com/book/default/chapter/04'), (<lazyT 'The Views'>, False, 'http://www.web2py.com/book/default/chapter/05'), (<lazyT 'Database'>, False, 'http://www.web2py.com/book/default/chapter/06'), (<lazyT 'Forms and Validators'>, False, 'http://www.web2py.com/book/default/chapter/07'), (<lazyT 'Access Control'>, False, 'http://www.web2py.com/book/default/chapter/08'), (<lazyT 'Services'>, False, 'http://www.web2py.com/book/default/chapter/09'), (<lazyT 'Ajax Recipes'>, False, 'http://www.web2py.com/book/default/chapter/10'), (<lazyT 'Deployment Recipes'>, False, 'http://www.web2py.com/book/default/chapter/11'), (<lazyT 'Other Recipes'>, False, 'http://www.web2py.com/book/default/chapter/12'), (<lazyT 'Buy this book'>, False, 'http://stores.lulu.com/web2py')]), (<lazyT 'Community'>, False, None, [(<lazyT 'Groups'>, False, 'http://www.web2py.com/examples/default/usergroups'), (<lazyT 'Twitter'>, False, 'http://twitter.com/web2py'), (<lazyT 'Live chat'>, False, 'http://mibbit.com/?channel=%23web2py&server=irc.mibbit.net'), (<lazyT 'User Voice'>, False, 'http://web2py.uservoice.com/')]), (<lazyT 'Web2py'>, False, 'http://www.web2py.com', [(<lazyT 'Download'>, False, 'http://www.web2py.com/examples/default/download'), (<lazyT 'Support'>, False, 'http://www.web2py.com/examples/default/support'), (<lazyT 'Quick Examples'>, False, 'http://web2py.com/examples/default/examples'), (<lazyT 'FAQ'>, False, 'http://web2py.com/AlterEgo'), (<lazyT 'Free Applications'>, False, 'http://web2py.com/appliances'), (<lazyT 'Plugins'>, False, 'http://web2py.com/plugins'), (<lazyT 'Recipes'>, False, 'http://web2pyslices.com/'), (<lazyT 'Demo'>, False, 'http://web2py.com/demo_admin'), (<lazyT 'Semantic'>, False, 'http://web2py.com/semantic'), (<lazyT 'Layouts'>, False, 'http://web2py.com/layouts'), (<lazyT 'Videos'>, False, 'http://www.web2py.com/examples/default/videos/')])])]"
p194
sS'_view_environment'
p195
S"{'A': <class 'gluon.html.A'>, 'Auth': <class 'gluon.tools.Auth'>, 'B': <class 'gluon.html.B'>, 'BEAUTIFY': <class 'gluon.html.BEAUTIFY'>, 'BODY': <class 'gluon.html.BODY'>, 'BR': <class 'gluon.html.BR'>, 'CENTER': <class 'gluon.html.CENTER'>, 'CLEANUP': <class 'gluon.validators.CLEANUP'>, 'CODE': <class 'gluon.html.CODE'>, 'CRYPT': <class 'gluon.validators.CRYPT'>, ...}"
p196
sS'subtitle'
p197
S"<lazyT 'customize me!'>"
p198
sS'session_id_name'
p199
S"'session_id_E_Learning'"
p200
sS'_custom_commit'
p201
S'None'
p202
sS'_caller'
p203
S'<function <lambda>>'
p204
sS'files'
p205
S'[<gluon.html.XML object>, <gluon.html.XML object>, <gluon.html.XML object>, <gluon.html.XML object>, <gluon.html.XML object>, <gluon.html.XML object>]'
p206
sS'view'
p207
S"'posts/index.html'"
p208
ssS'locals'
p209
(dp210
S'Service'
p211
S"<class 'gluon.tools.Service'>"
p212
sS'OBJECT'
p213
S"<class 'gluon.html.OBJECT'>"
p214
sS'_file'
p215
S'<gluon.html.XML object>'
p216
sS'SQLDB'
p217
S"<class 'gluon.dal.DAL'>"
p218
sg151
S"<Storage {'_formkey[posts_create]': '7e0acebb-09...reate]': '25ef845e-f824-495b-b918-e825b0b61e0a'}>"
p219
sS'LINK'
p220
S"<class 'gluon.html.LINK'>"
p221
sS'BR'
p222
S"<class 'gluon.html.BR'>"
p223
sS'local_import'
p224
S'<function <lambda>>'
p225
sS'OPTGROUP'
p226
S"<class 'gluon.html.OPTGROUP'>"
p227
sS'PRE'
p228
S"<class 'gluon.html.PRE'>"
p229
sS'IS_INT_IN_RANGE'
p230
S"<class 'gluon.validators.IS_INT_IN_RANGE'>"
p231
sS'left_sidebar_enabled'
p232
g81
sS'IS_LOWER'
p233
S"<class 'gluon.validators.IS_LOWER'>"
p234
sS'IS_STRONG'
p235
S"<class 'gluon.validators.IS_STRONG'>"
p236
sS'Recaptcha'
p237
S"<class 'gluon.tools.Recaptcha'>"
p238
sS'cache'
p239
S'<gluon.cache.Cache object>'
p240
sS'IS_IN_DB'
p241
S"<class 'gluon.validators.IS_IN_DB'>"
p242
sS'TAG'
p243
S'<gluon.html.__TAG__ object>'
p244
sS'_k'
p245
S'5'
sS'SQLField'
p246
S"<class 'gluon.dal.Field'>"
p247
sS'mail'
p248
S'<gluon.tools.Mail object>'
p249
sS'BODY'
p250
S"<class 'gluon.html.BODY'>"
p251
sS'IS_DATE_IN_RANGE'
p252
S"<class 'gluon.validators.IS_DATE_IN_RANGE'>"
p253
sS'TH'
p254
S"<class 'gluon.html.TH'>"
p255
sS'URL'
p256
S'<function _URL>'
p257
sS'db'
p258
S"<DAL {'auth_permission': <Table {'ALL': <gluon.d...l.Field object at 0xa07972c>}>, '_pool_size': 0}>"
p259
sS'auth'
p260
S'<gluon.tools.Auth object>'
p261
sS'P'
S"<class 'gluon.html.P'>"
p262
sS'TFOOT'
p263
S"<class 'gluon.html.TFOOT'>"
p264
sS'XHTML'
p265
S"<class 'gluon.html.XHTML'>"
p266
sS'ON'
p267
S'True'
p268
sS'OL'
p269
S"<class 'gluon.html.OL'>"
p270
sS'TEXTAREA'
p271
S"<class 'gluon.html.TEXTAREA'>"
p272
sS'MENU'
p273
S"<class 'gluon.html.MENU'>"
p274
sS'_file0'
p275
S"'/e_learning/static/js/superfish.js'"
p276
sS'LOAD'
p277
S'<gluon.compileapp.LoadFactory object>'
p278
sS'CODE'
p279
S"<class 'gluon.html.CODE'>"
p280
sS'HTTP'
p281
S"<class 'gluon.http.HTTP'>"
p282
sS'HR'
p283
S"<class 'gluon.html.HR'>"
p284
sS'IS_DATETIME'
p285
S"<class 'gluon.validators.IS_DATETIME'>"
p286
sS'HEAD'
p287
S"<class 'gluon.html.HEAD'>"
p288
sS'LABEL'
p289
S"<class 'gluon.html.LABEL'>"
p290
sS'CLEANUP'
p291
S"<class 'gluon.validators.CLEANUP'>"
p292
sS'plugins'
p293
S'<gluon.tools.PluginManager object>'
p294
sS'SELECT'
p295
S"<class 'gluon.html.SELECT'>"
p296
sS'CENTER'
p297
S"<class 'gluon.html.CENTER'>"
p298
sS'left_sidebar_style'
p299
S'\'style="display: none;"\''
p300
sS'Crud'
p301
S"<class 'gluon.tools.Crud'>"
p302
sS'Auth'
p303
S"<class 'gluon.tools.Auth'>"
p304
sS'__builtins__'
p305
S"{'ArithmeticError': <type 'exceptions.ArithmeticError'>, 'AssertionError': <type 'exceptions.AssertionError'>, 'AttributeError': <type 'exceptions.AttributeError'>, 'BaseException': <type 'exceptions.BaseException'>, 'BufferError': <type 'exceptions.BufferError'>, 'BytesWarning': <type 'exceptions.BytesWarning'>, 'DeprecationWarning': <type 'exceptions.DeprecationWarning'>, 'EOFError': <type 'exceptions.EOFError'>, 'Ellipsis': Ellipsis, 'EnvironmentError': <type 'exceptions.EnvironmentError'>, ...}"
p306
sS'IS_LIST_OF'
p307
S"<class 'gluon.validators.IS_LIST_OF'>"
p308
sS'SQLFORM'
p309
S"<class 'gluon.sqlhtml.SQLFORM'>"
p310
sS'_item'
p311
S"'author'"
p312
sS'EM'
p313
S"<class 'gluon.html.EM'>"
p314
sS'redirect'
p315
S'<function redirect>'
p316
sS'FIELDSET'
p317
S"<class 'gluon.html.FIELDSET'>"
p318
sS'IS_EQUAL_TO'
p319
S"<class 'gluon.validators.IS_EQUAL_TO'>"
p320
sS'embed64'
p321
S'<function embed64>'
p322
sS'INPUT'
p323
S"<class 'gluon.html.INPUT'>"
p324
sS'EMBED'
p325
S"<class 'gluon.html.EMBED'>"
p326
sS'FORM'
p327
S"<class 'gluon.html.FORM'>"
p328
sS'width_content'
p329
S"'100%'"
p330
sS'H2'
p331
S"<class 'gluon.html.H2'>"
p332
sS'H3'
p333
S"<class 'gluon.html.H3'>"
p334
sS'H1'
p335
S"<class 'gluon.html.H1'>"
p336
sS'H6'
p337
S"<class 'gluon.html.H6'>"
p338
sS'H4'
p339
S"<class 'gluon.html.H4'>"
p340
sS'H5'
p341
S"<class 'gluon.html.H5'>"
p342
sS'UL'
p343
S"<class 'gluon.html.UL'>"
p344
sS'IS_UPPER'
p345
S"<class 'gluon.validators.IS_UPPER'>"
p346
sS'xmlescape'
p347
S'<function xmlescape>'
p348
sS'IS_TIME'
p349
S"<class 'gluon.validators.IS_TIME'>"
p350
sS'OPTION'
p351
S"<class 'gluon.html.OPTION'>"
p352
sS'TITLE'
p353
S"<class 'gluon.html.TITLE'>"
p354
sS'CRYPT'
p355
S"<class 'gluon.validators.CRYPT'>"
p356
sS'IS_EMPTY_OR'
p357
S"<class 'gluon.validators.IS_EMPTY_OR'>"
p358
sS'MARKMIN'
p359
S"<class 'gluon.html.MARKMIN'>"
p360
sS'service'
p361
S'<gluon.tools.Service object>'
p362
sS'SCRIPT'
p363
S"<class 'gluon.html.SCRIPT'>"
p364
sS'geocode'
p365
S'<function geocode>'
p366
sS'msg'
p367
S"<lazyT 'Welcome to the Post Controller'>"
p368
sS'TABLE'
p369
S"<class 'gluon.html.TABLE'>"
p370
sS'IS_IPV4'
p371
S"<class 'gluon.validators.IS_IPV4'>"
p372
sS'IS_LENGTH'
p373
S"<class 'gluon.validators.IS_LENGTH'>"
p374
sS'XML'
p375
S"<class 'gluon.html.XML'>"
p376
sS'B'
S"<class 'gluon.html.B'>"
p377
sS'IMG'
p378
S"<class 'gluon.html.IMG'>"
p379
sS'SQLTABLE'
p380
S"<class 'gluon.sqlhtml.SQLTABLE'>"
p381
sS'IS_MATCH'
p382
S"<class 'gluon.validators.IS_MATCH'>"
p383
sS'IS_ALPHANUMERIC'
p384
S"<class 'gluon.validators.IS_ALPHANUMERIC'>"
p385
sS'SPAN'
p386
S"<class 'gluon.html.SPAN'>"
p387
sS'IS_SLUG'
p388
S"<class 'gluon.validators.IS_SLUG'>"
p389
sS'BEAUTIFY'
p390
S"<class 'gluon.html.BEAUTIFY'>"
p391
sS'META'
p392
S"<class 'gluon.html.META'>"
p393
sS'fetch'
p394
S'<function fetch>'
p395
sS'IS_DATE'
p396
S"<class 'gluon.validators.IS_DATE'>"
p397
sS'IS_EMAIL'
p398
S"<class 'gluon.validators.IS_EMAIL'>"
p399
sS'IS_NOT_EMPTY'
p400
S"<class 'gluon.validators.IS_NOT_EMPTY'>"
p401
sg55
S"<Storage {'function': 'index', 'body': <cStringI...31, 14, 1, 8, 95687), 'post_vars': <Storage {}>}>"
p402
sS'TBODY'
p403
S"<class 'gluon.html.TBODY'>"
p404
sS'Field'
p405
S"<class 'gluon.dal.Field'>"
p406
sS'Mail'
p407
S"<class 'gluon.tools.Mail'>"
p408
sS'DIV'
p409
S"<class 'gluon.html.DIV'>"
p410
sS'LEGEND'
p411
S"<class 'gluon.html.LEGEND'>"
p412
sS'DAL'
p413
S"<class 'gluon.dal.DAL'>"
p414
sS'TT'
p415
S"<class 'gluon.html.TT'>"
p416
sS'TR'
p417
S"<class 'gluon.html.TR'>"
p418
sS'LI'
p419
S"<class 'gluon.html.LI'>"
p420
sS'right_sidebar_enabled'
p421
g81
sS'IFRAME'
p422
S"<class 'gluon.html.IFRAME'>"
p423
sS'TD'
p424
S"<class 'gluon.html.TD'>"
p425
sS'PluginManager'
p426
S"<class 'gluon.tools.PluginManager'>"
p427
sS'IS_URL'
p428
S"<class 'gluon.validators.IS_URL'>"
p429
sS'A'
S"<class 'gluon.html.A'>"
p430
sS'STYLE'
p431
S"<class 'gluon.html.STYLE'>"
p432
sS'IS_DATETIME_IN_RANGE'
p433
S"<class 'gluon.validators.IS_DATETIME_IN_RANGE'>"
p434
sS'HTML'
p435
S"<class 'gluon.html.HTML'>"
p436
sS'IS_IMAGE'
p437
S"<class 'gluon.validators.IS_IMAGE'>"
p438
sS'I'
S"<class 'gluon.html.I'>"
p439
sS'crud'
p440
S'<gluon.tools.Crud object>'
p441
sS'right_sidebar_style'
p442
S'\'style="display: none;"\''
p443
sS'IS_NOT_IN_DB'
p444
S"<class 'gluon.validators.IS_NOT_IN_DB'>"
p445
sg167
S"<Storage {'status': 200, 'body': <cStringIO.Stri...object at 0x9f1a66c>], '_custom_rollback': None}>"
p446
sS'THEAD'
p447
S"<class 'gluon.html.THEAD'>"
p448
sS'IS_NULL_OR'
p449
S"<class 'gluon.validators.IS_EMPTY_OR'>"
p450
sS'prettydate'
p451
S'<function prettydate>'
p452
sS'IS_FLOAT_IN_RANGE'
p453
S"<class 'gluon.validators.IS_FLOAT_IN_RANGE'>"
p454
sS'IS_EXPR'
p455
S"<class 'gluon.validators.IS_EXPR'>"
p456
sS'T'
S'<gluon.languages.translator object>'
p457
sS'IS_IN_SET'
p458
S"<class 'gluon.validators.IS_IN_SET'>"
p459
sS'IS_UPLOAD_FILENAME'
p460
S"<class 'gluon.validators.IS_UPLOAD_FILENAME'>"
p461
sS'style_content'
p462
S'\'style="width: 100%"\''
p463
sS'IS_DECIMAL_IN_RANGE'
p464
S"<class 'gluon.validators.IS_DECIMAL_IN_RANGE'>"
p465
sssS'traceback'
p466
S'Traceback (most recent call last):\n  File "/home/franzejr/web2py/gluon/restricted.py", line 188, in restricted\n    exec ccode in environment\n  File "/home/franzejr/web2py/applications/E_Learning/views/posts/index.html", line 99, in <module>\nNameError: name \'records\' is not defined\n'
p467
s.