(dp1
S'output'
p2
S''
sS'layer'
p3
S'/home/franzejr/web2py/applications/E_Learning/controllers/posts.py'
p4
sS'code'
p5
S'def index():\n     return dict(message=T(\'Hello World\'))\n  \ndef new():\n    postform = SQLFORM(db.post)\n    if postform.accepts(request.vars,session):\n       redirect(URL(r=request, f="view", args=postform.vars.id))\n    return dict(postform=postform)\n    \n\ndef edit():\n    postid = request.args(0)\n    post = db(db.post.id == postid).select()[0]\n    editform = SQLFORM(db.post, posts, deletable=True)\n    if editform.accepts(request.vars, session):\n        redirect(URL(r=request,f = "view",args=postid))\n    return dict(editform=editform, post=post)\n    \ndef view():\n    postid = request.args(0)\n    post = db(db.post.id == postid).select()[0]\n    db.comment.post.default = postid\n    commentform = SQLFORM(db.comment)\n    if commentform.accepts(request.vars, session):\n        redirect(URL(r=request, f = "view", args=postid))\n    return dict(post=post, commentform=commentform)\n        \n    \nresponse._vars=response._caller(view)\n'
p6
sS'snapshot'
p7
(dp8
S'exception'
p9
(dp10
S'__hash__'
p11
S"<method-wrapper '__hash__' of exceptions.IndexError object>"
p12
sS'__setattr__'
p13
S"<method-wrapper '__setattr__' of exceptions.IndexError object>"
p14
sS'__reduce_ex__'
p15
S'<built-in method __reduce_ex__ of exceptions.IndexError object>'
p16
sS'__getslice__'
p17
S"<method-wrapper '__getslice__' of exceptions.IndexError object>"
p18
sS'__getitem__'
p19
S"<method-wrapper '__getitem__' of exceptions.IndexError object>"
p20
sS'__setstate__'
p21
S'<built-in method __setstate__ of exceptions.IndexError object>'
p22
sS'__reduce__'
p23
S'<built-in method __reduce__ of exceptions.IndexError object>'
p24
sS'__str__'
p25
S"<method-wrapper '__str__' of exceptions.IndexError object>"
p26
sS'__format__'
p27
S'<built-in method __format__ of exceptions.IndexError object>'
p28
sS'__getattribute__'
p29
S"<method-wrapper '__getattribute__' of exceptions.IndexError object>"
p30
sS'__class__'
p31
S"<type 'exceptions.IndexError'>"
p32
sS'__unicode__'
p33
S'<built-in method __unicode__ of exceptions.IndexError object>'
p34
sS'__delattr__'
p35
S"<method-wrapper '__delattr__' of exceptions.IndexError object>"
p36
sS'__subclasshook__'
p37
S'<built-in method __subclasshook__ of type object>'
p38
sS'__repr__'
p39
S"<method-wrapper '__repr__' of exceptions.IndexError object>"
p40
sS'args'
p41
S"('list index out of range',)"
p42
sS'__dict__'
p43
S'{}'
p44
sS'__sizeof__'
p45
S'<built-in method __sizeof__ of exceptions.IndexError object>'
p46
sS'__doc__'
p47
S"'Sequence index out of range.'"
p48
sS'__init__'
p49
S"<method-wrapper '__init__' of exceptions.IndexError object>"
p50
sS'__new__'
p51
S'<built-in method __new__ of type object>'
p52
ssS'evalue'
p53
S'list index out of range'
p54
sS'request'
p55
(dp56
S'function'
p57
S"'view'"
p58
sS'body'
p59
S'<cStringIO.StringO object>'
p60
sS'wsgi'
p61
S"<Storage {'start_response': <function <lambda> a...flate', 'PATH_INFO': '/E_Learning/posts/view/'}}>"
p62
sS'extension'
p63
S"'html'"
p64
sS'vars'
p65
S'<Storage {}>'
p66
sS'cid'
p67
S'None'
p68
sS'url'
p69
S'<gluon.html.XML object>'
p70
sS'raw_extension'
p71
S'None'
p72
sg41
S'[]'
p73
sS'controller'
p74
S"'posts'"
p75
sS'cookies'
p76
S"<SimpleCookie: session_id_E_Learning='127.0.0.1-...'127.0.0.1-23dad7cb-b091-4d73-a5e8-c79af16de874'>"
p77
sS'application'
p78
S"'E_Learning'"
p79
sS'ajax'
p80
S'False'
p81
sS'client'
p82
S"'127.0.0.1'"
p83
sS'env'
p84
S"<Storage {'wsgi_multithread': True, 'http_accept...'51154', 'path_info': '/E_Learning/posts/view/'}>"
p85
sS'raw_args'
p86
S'None'
p87
sS'get_vars'
p88
S'<Storage {}>'
p89
sS'folder'
p90
S"'/home/franzejr/web2py/applications/E_Learning/'"
p91
sS'now'
p92
S'datetime.datetime(2011, 5, 31, 13, 29, 57, 27175)'
p93
sS'post_vars'
p94
S'<Storage {}>'
p95
ssS'frames'
p96
(lp97
(dp98
S'file'
p99
S'/home/franzejr/web2py/gluon/restricted.py'
p100
sS'dump'
p101
(dp102
S'environment'
p103
S"{'A': <class 'gluon.html.A'>, 'Auth': <class 'gluon.tools.Auth'>, 'B': <class 'gluon.html.B'>, 'BEAUTIFY': <class 'gluon.html.BEAUTIFY'>, 'BODY': <class 'gluon.html.BODY'>, 'BR': <class 'gluon.html.BR'>, 'CENTER': <class 'gluon.html.CENTER'>, 'CLEANUP': <class 'gluon.validators.CLEANUP'>, 'CODE': <class 'gluon.html.CODE'>, 'CRYPT': <class 'gluon.validators.CRYPT'>, ...}"
p104
sS'ccode'
p105
S'<code object <module> at 0xa1d9a40, file "/home/...cations/E_Learning/controllers/posts.py", line 1>'
p106
ssS'lnum'
p107
I188
sS'lines'
p108
(dp109
I192
S'        # XXX Show exception in Wing IDE if running in debugger'
p110
sI183
S'        if type(code) == types.CodeType:'
p111
sI184
S'            ccode = code'
p112
sI185
S'        else:'
p113
sI186
S'            ccode = compile2(code,layer)'
p114
sI187
S''
sI188
S'        exec ccode in environment'
p115
sI189
S'    except HTTP:'
p116
sI190
S'        raise'
p117
sI191
S'    except Exception:'
p118
ssS'call'
p119
S'(code="def index():\\n     return dict(message=T(\'Hello W...     \\n    \\nresponse._vars=response._caller(view)\\n", environment={\'A\': <class \'gluon.html.A\'>, \'Auth\': <class \'gluon.tools.Auth\'>, \'B\': <class \'gluon.html.B\'>, \'BEAUTIFY\': <class \'gluon.html.BEAUTIFY\'>, \'BODY\': <class \'gluon.html.BODY\'>, \'BR\': <class \'gluon.html.BR\'>, \'CENTER\': <class \'gluon.html.CENTER\'>, \'CLEANUP\': <class \'gluon.validators.CLEANUP\'>, \'CODE\': <class \'gluon.html.CODE\'>, \'CRYPT\': <class \'gluon.validators.CRYPT\'>, ...}, layer=\'/home/franzejr/web2py/applications/E_Learning/controllers/posts.py\')'
p120
sS'func'
p121
S'restricted'
p122
sa(dp123
g99
S'/home/franzejr/web2py/applications/E_Learning/controllers/posts.py'
p124
sg101
(dp125
sg107
I29
sg108
(dp126
I19
S'def view():'
p127
sI20
S'    postid = request.args(0)'
p128
sI21
S'    post = db(db.post.id == postid).select()[0]'
p129
sI22
S'    db.comment.post.default = postid'
p130
sI23
S'    commentform = SQLFORM(db.comment)'
p131
sI24
S'    if commentform.accepts(request.vars, session):'
p132
sI25
S'        redirect(URL(r=request, f = "view", args=postid))'
p133
sI26
S'    return dict(post=post, commentform=commentform)'
p134
sI27
S''
sI28
S''
ssg119
S'()'
p135
sg121
S'<module>'
p136
sa(dp137
g99
S'/home/franzejr/web2py/gluon/globals.py'
p138
sg101
(dp139
S'self'
p140
S'undefined'
p141
sS'f'
S'<function view>'
p142
ssg107
I95
sg108
(dp143
I96
S'        self._view_environment = None'
p144
sI97
S'        self._custom_commit = None'
p145
sI98
S'        self._custom_rollback = None'
p146
sI99
S''
sI90
S"        self.flash = ''           # used by the default view layout"
p147
sI91
S'        self.meta = Storage()     # used by web2py_ajax.html'
p148
sI92
S'        self.menu = []            # used by the default view layout'
p149
sI93
S'        self.files = []           # used by web2py_ajax.html'
p150
sI94
S'        self._vars = None'
p151
sI95
S'        self._caller = lambda f: f()'
p152
ssg119
S'(f=<function view>)'
p153
sg121
S'<lambda>'
p154
sa(dp155
g99
S'/home/franzejr/web2py/applications/E_Learning/controllers/posts.py'
p156
sg101
(dp157
S').select'
p158
g141
sS'db.post.id'
p159
S'<gluon.dal.Field object>'
p160
sS'db.post'
p161
S"<Table {'body': <gluon.dal.Field object at 0x9fb...c>, 'id': <gluon.dal.Field object at 0x9fb79ac>}>"
p162
sS'global db'
p163
S"<DAL {'auth_permission': <Table {'ALL': <gluon.d...l.Field object at 0x9fb734c>}>, '_pool_size': 0}>"
p164
sS'post'
p165
g141
sS'postid'
p166
S'None'
p167
ssg107
I21
sg108
(dp168
I16
S'        redirect(URL(r=request,f = "view",args=postid))'
p169
sI17
S'    return dict(editform=editform, post=post)'
p170
sI18
S''
sI19
S'def view():'
p171
sI20
S'    postid = request.args(0)'
p172
sI21
S'    post = db(db.post.id == postid).select()[0]'
p173
sI22
S'    db.comment.post.default = postid'
p174
sI23
S'    commentform = SQLFORM(db.comment)'
p175
sI24
S'    if commentform.accepts(request.vars, session):'
p176
sI25
S'        redirect(URL(r=request, f = "view", args=postid))'
p177
ssg119
S'()'
p178
sg121
S'view'
p179
sa(dp180
g99
S'/home/franzejr/web2py/gluon/dal.py'
p181
sg101
(dp182
S'i'
S'0'
sS'self'
p183
S'<gluon.dal.Rows object>'
p184
sS'self.records'
p185
S'[]'
p186
sS'row'
p187
g141
ssg107
I4627
sg108
(dp188
I4622
S''
sI4623
S'    def __getslice__(self, a, b):'
p189
sI4624
S'        return Rows(self.db,self.records[a:b],self.colnames)'
p190
sI4625
S''
sI4626
S'    def __getitem__(self, i):'
p191
sI4627
S'        row = self.records[i]'
p192
sI4628
S'        keys = row.keys()'
p193
sI4629
S"        if self.compact and len(keys) == 1 and keys[0] != '_extra':"
p194
sI4630
S'            return row[row.keys()[0]]'
p195
sI4631
S'        return row'
p196
ssg119
S'(self=<gluon.dal.Rows object>, i=0)'
p197
sg121
g19
sasS'pyver'
p198
S'Python 2.7.1+: /usr/bin/python'
p199
sS'session'
p200
(dp201
S'_formkey[posts_create]'
p202
S"'7e0acebb-095f-4c60-96c7-757782d01210'"
p203
sS'_formkey[comment_create]'
p204
S"'be81dccd-d826-4dc0-add1-0266a6a1eabc'"
p205
sS'_formkey[post_create]'
p206
S"'b57f47d0-28e5-4ba2-8c0d-65f1b9740b32'"
p207
sS'auth'
p208
S'None'
p209
ssS'etype'
p210
S"<type 'exceptions.IndexError'>"
p211
sS'date'
p212
S'Tue May 31 13:29:57 2011'
p213
sS'response'
p214
(dp215
S'status'
p216
S'200'
p217
sg59
S'<cStringIO.StringO object>'
p218
sg76
S"<SimpleCookie: session_id_E_Learning='127.0.0.1-0da20020-d08d-46ab-8fa8-5484396a44f2'>"
p219
sS'_vars'
p220
S'None'
p221
sS'title'
p222
S"'E_Learning'"
p223
sS'session_file'
p224
S"<open file '/home/franzejr/web2py/applications/E...da20020-d08d-46ab-8fa8-5484396a44f2', mode 'rb+'>"
p225
sS'flash'
p226
S"''"
p227
sS'_custom_rollback'
p228
S'None'
p229
sS'session_id'
p230
S"'127.0.0.1-0da20020-d08d-46ab-8fa8-5484396a44f2'"
p231
sS'headers'
p232
S"<Storage {'Expires': 'Tue, 31 May 2011 16:29:57 ...he, must-revalidate, post-check=0, pre-check=0'}>"
p233
sS'meta'
p234
S"<Storage {'keywords': 'web2py, python, framework... 'Web2py Enterprise Framework', 'author': 'you'}>"
p235
sS'session_filename'
p236
S"'/home/franzejr/web2py/applications/E_Learning/se...ns/127.0.0.1-0da20020-d08d-46ab-8fa8-5484396a44f2'"
p237
sS'postprocessing'
p238
S'[]'
p239
sS'menu'
p240
S"[(<lazyT 'Home'>, False, <gluon.html.XML object>, []), (<lazyT 'This App'>, False, <gluon.html.XML object>, [(<lazyT 'Controller'>, False, <gluon.html.XML object>), (<lazyT 'View'>, False, <gluon.html.XML object>), (<lazyT 'Layout'>, False, <gluon.html.XML object>), (<lazyT 'Stylesheet'>, False, <gluon.html.XML object>), (<lazyT 'DB Model'>, False, <gluon.html.XML object>), (<lazyT 'Menu Model'>, False, <gluon.html.XML object>), (<lazyT 'Database'>, False, <gluon.html.XML object>), (<lazyT 'Errors'>, False, <gluon.html.XML object>), (<lazyT 'About'>, False, <gluon.html.XML object>)]), (<lazyT 'Resources'>, False, None, [(<lazyT 'Documentation'>, False, 'http://www.web2py.com/book', [(<lazyT 'Preface'>, False, 'http://www.web2py.com/book/default/chapter/00'), (<lazyT 'Introduction'>, False, 'http://www.web2py.com/book/default/chapter/01'), (<lazyT 'Python'>, False, 'http://www.web2py.com/book/default/chapter/02'), (<lazyT 'Overview'>, False, 'http://www.web2py.com/book/default/chapter/03'), (<lazyT 'The Core'>, False, 'http://www.web2py.com/book/default/chapter/04'), (<lazyT 'The Views'>, False, 'http://www.web2py.com/book/default/chapter/05'), (<lazyT 'Database'>, False, 'http://www.web2py.com/book/default/chapter/06'), (<lazyT 'Forms and Validators'>, False, 'http://www.web2py.com/book/default/chapter/07'), (<lazyT 'Access Control'>, False, 'http://www.web2py.com/book/default/chapter/08'), (<lazyT 'Services'>, False, 'http://www.web2py.com/book/default/chapter/09'), (<lazyT 'Ajax Recipes'>, False, 'http://www.web2py.com/book/default/chapter/10'), (<lazyT 'Deployment Recipes'>, False, 'http://www.web2py.com/book/default/chapter/11'), (<lazyT 'Other Recipes'>, False, 'http://www.web2py.com/book/default/chapter/12'), (<lazyT 'Buy this book'>, False, 'http://stores.lulu.com/web2py')]), (<lazyT 'Community'>, False, None, [(<lazyT 'Groups'>, False, 'http://www.web2py.com/examples/default/usergroups'), (<lazyT 'Twitter'>, False, 'http://twitter.com/web2py'), (<lazyT 'Live chat'>, False, 'http://mibbit.com/?channel=%23web2py&server=irc.mibbit.net'), (<lazyT 'User Voice'>, False, 'http://web2py.uservoice.com/')]), (<lazyT 'Web2py'>, False, 'http://www.web2py.com', [(<lazyT 'Download'>, False, 'http://www.web2py.com/examples/default/download'), (<lazyT 'Support'>, False, 'http://www.web2py.com/examples/default/support'), (<lazyT 'Quick Examples'>, False, 'http://web2py.com/examples/default/examples'), (<lazyT 'FAQ'>, False, 'http://web2py.com/AlterEgo'), (<lazyT 'Free Applications'>, False, 'http://web2py.com/appliances'), (<lazyT 'Plugins'>, False, 'http://web2py.com/plugins'), (<lazyT 'Recipes'>, False, 'http://web2pyslices.com/'), (<lazyT 'Demo'>, False, 'http://web2py.com/demo_admin'), (<lazyT 'Semantic'>, False, 'http://web2py.com/semantic'), (<lazyT 'Layouts'>, False, 'http://web2py.com/layouts'), (<lazyT 'Videos'>, False, 'http://www.web2py.com/examples/default/videos/')])])]"
p241
sS'_view_environment'
p242
S"{'A': <class 'gluon.html.A'>, 'Auth': <class 'gluon.tools.Auth'>, 'B': <class 'gluon.html.B'>, 'BEAUTIFY': <class 'gluon.html.BEAUTIFY'>, 'BODY': <class 'gluon.html.BODY'>, 'BR': <class 'gluon.html.BR'>, 'CENTER': <class 'gluon.html.CENTER'>, 'CLEANUP': <class 'gluon.validators.CLEANUP'>, 'CODE': <class 'gluon.html.CODE'>, 'CRYPT': <class 'gluon.validators.CRYPT'>, ...}"
p243
sS'subtitle'
p244
S"<lazyT 'customize me!'>"
p245
sS'session_id_name'
p246
S"'session_id_E_Learning'"
p247
sS'_custom_commit'
p248
S'None'
p249
sS'_caller'
p250
S'<function <lambda>>'
p251
sS'files'
p252
S'[]'
p253
sg179
S"'posts/view.html'"
p254
ssS'locals'
p255
(dp256
S'i'
S'0'
sS'self'
p257
S'<gluon.dal.Rows object>'
p258
sssS'traceback'
p259
S'Traceback (most recent call last):\n  File "/home/franzejr/web2py/gluon/restricted.py", line 188, in restricted\n    exec ccode in environment\n  File "/home/franzejr/web2py/applications/E_Learning/controllers/posts.py", line 29, in <module>\n  File "/home/franzejr/web2py/gluon/globals.py", line 95, in <lambda>\n    self._caller = lambda f: f()\n  File "/home/franzejr/web2py/applications/E_Learning/controllers/posts.py", line 21, in view\n    post = db(db.post.id == postid).select()[0]\n  File "/home/franzejr/web2py/gluon/dal.py", line 4627, in __getitem__\n    row = self.records[i]\nIndexError: list index out of range\n'
p260
s.