(dp1
S'output'
p2
S''
sS'layer'
p3
S'/home/franzejr/web2py/applications/E_Learning/controllers/posts.py'
p4
sS'code'
p5
S'def index():\n     return dict(message=T(\'Hello World\'))\n  \ndef new():\n    postform = SQLFORM(db.post)\n    if postform.accepts(request.vars,session):\n       redirect(URL(r=request, f="view", args=postform.vars.id))\n    return dict(postform=postform)\n    \n\ndef edit():\n    postid = request.args(0)\n    post = db(db.post.id == postid).select()[0]\n    editform = SQLFORM(db.post, post, deletable=True)\n    if editform.accepts(request.vars, session):\n        redirect(URL(r=request,f = "view",args=postid))\n    return dict(editform=editform, post=post)\n\ndef post_select():\n    f,v=request.args(0),request.args(1)\n    try: query=f and db.post[f]==v or db.post\n    except: redirect(URL(\'error\'))\n    rows=db(query)(db.post.active==True).select()\n    return dict(rows=rows)\n    \ndef view():\n    postid = request.args(0)\n    post = db(db.post.id == postid).select()[0]\n    db.comment.post.default = postid\n    commentform = SQLFORM(db.comment)\n    if commentform.accepts(request.vars, session):\n        redirect(URL(r=request, f = "view", args=postid))\n    return dict(post=post, commentform=commentform)\n        \n    \nresponse._vars=response._caller(post_select)\n'
p6
sS'snapshot'
p7
(dp8
sS'traceback'
p9
S'Traceback (most recent call last):\n  File "/home/franzejr/web2py/gluon/restricted.py", line 188, in restricted\n    exec ccode in environment\n  File "/home/franzejr/web2py/applications/E_Learning/controllers/posts.py", line 36, in <module>\n  File "/home/franzejr/web2py/gluon/globals.py", line 95, in <lambda>\n    self._caller = lambda f: f()\n  File "/home/franzejr/web2py/applications/E_Learning/controllers/posts.py", line 23, in post_select\n    rows=db(query)(db.post.active==True).select()\n  File "/home/franzejr/web2py/gluon/dal.py", line 3824, in __getattr__\n    return dict.__getitem__(self,key)\nKeyError: \'active\'\n'
p10
s.